target datalayout = "e-m:e-p270:32:32-p271:32:32-p272:64:64-i64:64-i128:128-f80:128-n8:16:32:64-S128"
target triple = "x86_64-pc-linux-gnu"

%struct.ThreadList = type { ptr }
%struct.ThreadNode = type { ptr, i16, i32, ptr, i32, i32, %struct.StepRequest, %struct.InvokeRequest, ptr, %struct.CoLocatedEventInfo_, ptr, ptr, i64, ptr }
%struct.StepRequest = type { i32, i32, i8, i8, i8, i32, i32, ptr, ptr, i32, ptr, ptr, ptr, ptr }
%struct.InvokeRequest = type { i8, i8, i8, i8, i32, i8, i8, ptr, ptr, ptr, ptr, i32, ptr, %union.jvalue, ptr }
%union.jvalue = type { i64 }
%struct.CoLocatedEventInfo_ = type { i32, ptr, ptr, i64 }

@runningThreads = internal global %struct.ThreadList zeroinitializer, align 8
@runningVThreads = internal global %struct.ThreadList zeroinitializer, align 8
@threadLock = internal global ptr null, align 8

; Function Attrs: nounwind uwtable
define internal ptr @findRunningThread(ptr noundef %0) #0 {
  %2 = alloca ptr, align 8
  %3 = alloca ptr, align 8
  store ptr %0, ptr %2, align 8
  %4 = load ptr, ptr %2, align 8
  %5 = call zeroext i8 @isVThread(ptr noundef %4)
  %6 = icmp ne i8 %5, 0
  br i1 %6, label %7, label %10

7:                                                ; preds = %1
  %8 = load ptr, ptr %2, align 8
  %9 = call ptr @findThread(ptr noundef @runningVThreads, ptr noundef %8)
  store ptr %9, ptr %3, align 8
  br label %13

10:                                               ; preds = %1
  %11 = load ptr, ptr %2, align 8
  %12 = call ptr @findThread(ptr noundef @runningThreads, ptr noundef %11)
  store ptr %12, ptr %3, align 8
  br label %13

13:                                               ; preds = %10, %7
  %14 = load ptr, ptr %3, align 8
  ret ptr %14
}

; Function Attrs: nounwind uwtable
define hidden zeroext i8 @threadControl_cmpCLEInfo(ptr noundef %0, ptr noundef %1, ptr noundef %2, ptr noundef %3, i64 noundef %4) #0 {
  %6 = alloca ptr, align 8
  %7 = alloca ptr, align 8
  %8 = alloca ptr, align 8
  %9 = alloca ptr, align 8
  %10 = alloca i64, align 8
  %11 = alloca ptr, align 8
  %12 = alloca i8, align 1
  store ptr %0, ptr %6, align 8
  store ptr %1, ptr %7, align 8
  store ptr %2, ptr %8, align 8
  store ptr %3, ptr %9, align 8
  store i64 %4, ptr %10, align 8
  store i8 0, ptr %12, align 1
  %13 = load ptr, ptr @threadLock, align 8
  call void @debugMonitorEnter(ptr noundef %13)
  %14 = load ptr, ptr %7, align 8
  %15 = call ptr @findRunningThread(ptr noundef %14)
  store ptr %15, ptr %11, align 8
  %16 = load ptr, ptr %11, align 8
  %17 = icmp ne ptr %16, null
  br i1 %17, label %18, label %49

18:                                               ; preds = %5
  %19 = load ptr, ptr %11, align 8
  %20 = getelementptr inbounds %struct.ThreadNode, ptr %19, i32 0, i32 9
  %21 = getelementptr inbounds %struct.CoLocatedEventInfo_, ptr %20, i32 0, i32 0
  %22 = load i32, ptr %21, align 8
  %23 = icmp ne i32 %22, 0
  br i1 %23, label %24, label %49

24:                                               ; preds = %18
  %25 = load ptr, ptr %11, align 8
  %26 = getelementptr inbounds %struct.ThreadNode, ptr %25, i32 0, i32 9
  %27 = getelementptr inbounds %struct.CoLocatedEventInfo_, ptr %26, i32 0, i32 2
  %28 = load ptr, ptr %27, align 8
  %29 = load ptr, ptr %9, align 8
  %30 = icmp eq ptr %28, %29
  br i1 %30, label %31, label %49

31:                                               ; preds = %24
  %32 = load ptr, ptr %11, align 8
  %33 = getelementptr inbounds %struct.ThreadNode, ptr %32, i32 0, i32 9
  %34 = getelementptr inbounds %struct.CoLocatedEventInfo_, ptr %33, i32 0, i32 3
  %35 = load i64, ptr %34, align 8
  %36 = load i64, ptr %10, align 8
  %37 = icmp eq i64 %35, %36
  br i1 %37, label %38, label %49

38:                                               ; preds = %31
  %39 = load ptr, ptr %6, align 8
  %40 = load ptr, ptr %11, align 8
  %41 = getelementptr inbounds %struct.ThreadNode, ptr %40, i32 0, i32 9
  %42 = getelementptr inbounds %struct.CoLocatedEventInfo_, ptr %41, i32 0, i32 1
  %43 = load ptr, ptr %42, align 8
  %44 = load ptr, ptr %8, align 8
  %45 = call zeroext i8 @isSameObject(ptr noundef %39, ptr noundef %43, ptr noundef %44)
  %46 = zext i8 %45 to i32
  %47 = icmp ne i32 %46, 0
  br i1 %47, label %48, label %49

48:                                               ; preds = %38
  store i8 1, ptr %12, align 1
  br label %49

49:                                               ; preds = %48, %38, %31, %24, %18, %5
  %50 = load ptr, ptr @threadLock, align 8
  call void @debugMonitorExit(ptr noundef %50)
  %51 = load i8, ptr %12, align 1
  ret i8 %51
}