; Function Attrs: nounwind uwtable
define hidden zeroext range(i8 0, 2) i8 @threadControl_cmpCLEInfo(ptr noundef %0, ptr noundef %1, ptr noundef %2, ptr noundef readnone %3, i64 noundef %4) local_unnamed_addr #0 {
  %6 = load ptr, ptr @threadLock, align 8
  tail call void @debugMonitorEnter(ptr noundef %6) #6
  %7 = tail call zeroext i8 @isVThread(ptr noundef %1) #6
  %.not.i = icmp eq i8 %7, 0
  %runningThreads.runningVThreads.i = select i1 %.not.i, ptr @runningThreads, ptr @runningVThreads
  %8 = tail call fastcc ptr @findThread(ptr noundef nonnull %runningThreads.runningVThreads.i, ptr noundef %1)
  %.not = icmp eq ptr %8, null
  br i1 %.not, label %24, label %9

9:                                                ; preds = %5
  %10 = getelementptr inbounds i8, ptr %8, i64 200
  %11 = load i32, ptr %10, align 8
  %.not11 = icmp eq i32 %11, 0
  br i1 %.not11, label %24, label %12

12:                                               ; preds = %9
  %13 = getelementptr inbounds i8, ptr %8, i64 216
  %14 = load ptr, ptr %13, align 8
  %15 = icmp eq ptr %14, %3
  br i1 %15, label %16, label %24

16:                                               ; preds = %12
  %17 = getelementptr inbounds i8, ptr %8, i64 224
  %18 = load i64, ptr %17, align 8
  %19 = icmp eq i64 %18, %4
  br i1 %19, label %20, label %24

20:                                               ; preds = %16
  %21 = getelementptr inbounds i8, ptr %8, i64 208
  %22 = load ptr, ptr %21, align 8
  %23 = tail call zeroext i8 @isSameObject(ptr noundef %0, ptr noundef %22, ptr noundef %2) #6
  %.not12 = icmp ne i8 %23, 0
  %spec.select = zext i1 %.not12 to i8
  br label %24

24:                                               ; preds = %20, %16, %12, %9, %5
  %.0 = phi i8 [ 0, %16 ], [ 0, %12 ], [ 0, %9 ], [ 0, %5 ], [ %spec.select, %20 ]
  %25 = load ptr, ptr @threadLock, align 8
  tail call void @debugMonitorExit(ptr noundef %25) #6
  ret i8 %.0
}